; ModuleID = 'source-C-CXX/33/1145.cpp'
source_filename = "source-C-CXX/33/1145.cpp"
target datalayout = "e-m:e-p270:32:32-p271:32:32-p272:64:64-i64:64-f80:128-n8:16:32:64-S128"
target triple = "x86_64-pc-linux-gnu"

%"class.std::ios_base::Init" = type { i8 }
%"class.std::basic_ostream" = type { i32 (...)**, %"class.std::basic_ios" }
%"class.std::basic_ios" = type { %"class.std::ios_base", %"class.std::basic_ostream"*, i8, i8, %"class.std::basic_streambuf"*, %"class.std::ctype"*, %"class.std::num_put"*, %"class.std::num_get"* }
%"class.std::ios_base" = type { i32 (...)**, i64, i64, i32, i32, i32, %"struct.std::ios_base::_Callback_list"*, %"struct.std::ios_base::_Words", [8 x %"struct.std::ios_base::_Words"], i32, %"struct.std::ios_base::_Words"*, %"class.std::locale" }
%"struct.std::ios_base::_Callback_list" = type { %"struct.std::ios_base::_Callback_list"*, void (i32, %"class.std::ios_base"*, i32)*, i32, i32 }
%"struct.std::ios_base::_Words" = type { i8*, i64 }
%"class.std::locale" = type { %"class.std::locale::_Impl"* }
%"class.std::locale::_Impl" = type { i32, %"class.std::locale::facet"**, i64, %"class.std::locale::facet"**, i8** }
%"class.std::locale::facet" = type <{ i32 (...)**, i32, [4 x i8] }>
%"class.std::basic_streambuf" = type { i32 (...)**, i8*, i8*, i8*, i8*, i8*, i8*, %"class.std::locale" }
%"class.std::ctype" = type <{ %"class.std::locale::facet.base", [4 x i8], %struct.__locale_struct*, i8, [7 x i8], i32*, i32*, i16*, i8, [256 x i8], [256 x i8], i8, [6 x i8] }>
%"class.std::locale::facet.base" = type <{ i32 (...)**, i32 }>
%struct.__locale_struct = type { [13 x %struct.__locale_data*], i16*, i32*, i32*, [13 x i8*] }
%struct.__locale_data = type opaque
%"class.std::num_put" = type { %"class.std::locale::facet.base", [4 x i8] }
%"class.std::num_get" = type { %"class.std::locale::facet.base", [4 x i8] }
%"class.std::basic_istream" = type { i32 (...)**, i64, %"class.std::basic_ios" }

@_ZStL8__ioinit = internal global %"class.std::ios_base::Init" zeroinitializer, align 1
@__dso_handle = external hidden global i8
@_ZSt4cout = external global %"class.std::basic_ostream", align 8
@.str = private unnamed_addr constant [6 x i8] c"*3+1=\00", align 1
@.str.1 = private unnamed_addr constant [4 x i8] c"/2=\00", align 1
@_ZSt3cin = external global %"class.std::basic_istream", align 8
@.str.2 = private unnamed_addr constant [4 x i8] c"End\00", align 1
@llvm.global_ctors = appending global [1 x { i32, void ()*, i8* }] [{ i32, void ()*, i8* } { i32 65535, void ()* @_GLOBAL__sub_I_1145.cpp, i8* null }]

declare void @_ZNSt8ios_base4InitC1Ev(%"class.std::ios_base::Init"* nonnull align 1 dereferenceable(1)) unnamed_addr #0

; Function Attrs: nounwind
declare void @_ZNSt8ios_base4InitD1Ev(%"class.std::ios_base::Init"* nonnull align 1 dereferenceable(1)) unnamed_addr #1

; Function Attrs: nofree nounwind
declare i32 @__cxa_atexit(void (i8*)*, i8*, i8*) local_unnamed_addr #2

; Function Attrs: mustprogress sspstrong uwtable
define dso_local i32 @_Z6jiaogui(i32 %0) local_unnamed_addr #3 {
  %2 = srem i32 %0, 2
  %3 = sdiv i32 %0, 2
  %4 = icmp eq i32 %2, 1
  br i1 %4, label %5, label %39

5:                                                ; preds = %1
  %6 = mul nsw i32 %0, 3
  %7 = add nsw i32 %6, 1
  %8 = tail call nonnull align 8 dereferenceable(8) %"class.std::basic_ostream"* @_ZNSolsEi(%"class.std::basic_ostream"* nonnull align 8 dereferenceable(8) @_ZSt4cout, i32 %0)
  %9 = tail call nonnull align 8 dereferenceable(8) %"class.std::basic_ostream"* @_ZSt16__ostream_insertIcSt11char_traitsIcEERSt13basic_ostreamIT_T0_ES6_PKS3_l(%"class.std::basic_ostream"* nonnull align 8 dereferenceable(8) %8, i8* nonnull getelementptr inbounds ([6 x i8], [6 x i8]* @.str, i64 0, i64 0), i64 5)
  %10 = tail call nonnull align 8 dereferenceable(8) %"class.std::basic_ostream"* @_ZNSolsEi(%"class.std::basic_ostream"* nonnull align 8 dereferenceable(8) %8, i32 %7)
  %11 = bitcast %"class.std::basic_ostream"* %10 to i8**
  %12 = load i8*, i8** %11, align 8, !tbaa !5
  %13 = getelementptr i8, i8* %12, i64 -24
  %14 = bitcast i8* %13 to i64*
  %15 = load i64, i64* %14, align 8
  %16 = bitcast %"class.std::basic_ostream"* %10 to i8*
  %17 = add nsw i64 %15, 240
  %18 = getelementptr inbounds i8, i8* %16, i64 %17
  %19 = bitcast i8* %18 to %"class.std::ctype"**
  %20 = load %"class.std::ctype"*, %"class.std::ctype"** %19, align 8, !tbaa !8
  %21 = icmp eq %"class.std::ctype"* %20, null
  br i1 %21, label %22, label %23

22:                                               ; preds = %5
  tail call void @_ZSt16__throw_bad_castv() #8
  unreachable

23:                                               ; preds = %5
  %24 = getelementptr inbounds %"class.std::ctype", %"class.std::ctype"* %20, i64 0, i32 8
  %25 = load i8, i8* %24, align 8, !tbaa !13
  %26 = icmp eq i8 %25, 0
  br i1 %26, label %30, label %27

27:                                               ; preds = %23
  %28 = getelementptr inbounds %"class.std::ctype", %"class.std::ctype"* %20, i64 0, i32 9, i64 10
  %29 = load i8, i8* %28, align 1, !tbaa !15
  br label %36

30:                                               ; preds = %23
  tail call void @_ZNKSt5ctypeIcE13_M_widen_initEv(%"class.std::ctype"* nonnull align 8 dereferenceable(570) %20)
  %31 = bitcast %"class.std::ctype"* %20 to i8 (%"class.std::ctype"*, i8)***
  %32 = load i8 (%"class.std::ctype"*, i8)**, i8 (%"class.std::ctype"*, i8)*** %31, align 8, !tbaa !5
  %33 = getelementptr inbounds i8 (%"class.std::ctype"*, i8)*, i8 (%"class.std::ctype"*, i8)** %32, i64 6
  %34 = load i8 (%"class.std::ctype"*, i8)*, i8 (%"class.std::ctype"*, i8)** %33, align 8
  %35 = tail call signext i8 %34(%"class.std::ctype"* nonnull align 8 dereferenceable(570) %20, i8 signext 10)
  br label %36

36:                                               ; preds = %27, %30
  %37 = phi i8 [ %29, %27 ], [ %35, %30 ]
  %38 = tail call nonnull align 8 dereferenceable(8) %"class.std::basic_ostream"* @_ZNSo3putEc(%"class.std::basic_ostream"* nonnull align 8 dereferenceable(8) %10, i8 signext %37)
  br label %71

39:                                               ; preds = %1
  %40 = tail call nonnull align 8 dereferenceable(8) %"class.std::basic_ostream"* @_ZNSolsEi(%"class.std::basic_ostream"* nonnull align 8 dereferenceable(8) @_ZSt4cout, i32 %0)
  %41 = tail call nonnull align 8 dereferenceable(8) %"class.std::basic_ostream"* @_ZSt16__ostream_insertIcSt11char_traitsIcEERSt13basic_ostreamIT_T0_ES6_PKS3_l(%"class.std::basic_ostream"* nonnull align 8 dereferenceable(8) %40, i8* nonnull getelementptr inbounds ([4 x i8], [4 x i8]* @.str.1, i64 0, i64 0), i64 3)
  %42 = tail call nonnull align 8 dereferenceable(8) %"class.std::basic_ostream"* @_ZNSolsEi(%"class.std::basic_ostream"* nonnull align 8 dereferenceable(8) %40, i32 %3)
  %43 = bitcast %"class.std::basic_ostream"* %42 to i8**
  %44 = load i8*, i8** %43, align 8, !tbaa !5
  %45 = getelementptr i8, i8* %44, i64 -24
  %46 = bitcast i8* %45 to i64*
  %47 = load i64, i64* %46, align 8
  %48 = bitcast %"class.std::basic_ostream"* %42 to i8*
  %49 = add nsw i64 %47, 240
  %50 = getelementptr inbounds i8, i8* %48, i64 %49
  %51 = bitcast i8* %50 to %"class.std::ctype"**
  %52 = load %"class.std::ctype"*, %"class.std::ctype"** %51, align 8, !tbaa !8
  %53 = icmp eq %"class.std::ctype"* %52, null
  br i1 %53, label %54, label %55

54:                                               ; preds = %39
  tail call void @_ZSt16__throw_bad_castv() #8
  unreachable

55:                                               ; preds = %39
  %56 = getelementptr inbounds %"class.std::ctype", %"class.std::ctype"* %52, i64 0, i32 8
  %57 = load i8, i8* %56, align 8, !tbaa !13
  %58 = icmp eq i8 %57, 0
  br i1 %58, label %62, label %59

59:                                               ; preds = %55
  %60 = getelementptr inbounds %"class.std::ctype", %"class.std::ctype"* %52, i64 0, i32 9, i64 10
  %61 = load i8, i8* %60, align 1, !tbaa !15
  br label %68

62:                                               ; preds = %55
  tail call void @_ZNKSt5ctypeIcE13_M_widen_initEv(%"class.std::ctype"* nonnull align 8 dereferenceable(570) %52)
  %63 = bitcast %"class.std::ctype"* %52 to i8 (%"class.std::ctype"*, i8)***
  %64 = load i8 (%"class.std::ctype"*, i8)**, i8 (%"class.std::ctype"*, i8)*** %63, align 8, !tbaa !5
  %65 = getelementptr inbounds i8 (%"class.std::ctype"*, i8)*, i8 (%"class.std::ctype"*, i8)** %64, i64 6
  %66 = load i8 (%"class.std::ctype"*, i8)*, i8 (%"class.std::ctype"*, i8)** %65, align 8
  %67 = tail call signext i8 %66(%"class.std::ctype"* nonnull align 8 dereferenceable(570) %52, i8 signext 10)
  br label %68

68:                                               ; preds = %59, %62
  %69 = phi i8 [ %61, %59 ], [ %67, %62 ]
  %70 = tail call nonnull align 8 dereferenceable(8) %"class.std::basic_ostream"* @_ZNSo3putEc(%"class.std::basic_ostream"* nonnull align 8 dereferenceable(8) %42, i8 signext %69)
  br label %71

71:                                               ; preds = %68, %36
  %72 = phi %"class.std::basic_ostream"* [ %70, %68 ], [ %38, %36 ]
  %73 = phi i32 [ %3, %68 ], [ %7, %36 ]
  %74 = tail call nonnull align 8 dereferenceable(8) %"class.std::basic_ostream"* @_ZNSo5flushEv(%"class.std::basic_ostream"* nonnull align 8 dereferenceable(8) %72)
  ret i32 %73
}

; Function Attrs: argmemonly mustprogress nofree nosync nounwind willreturn
declare void @llvm.lifetime.start.p0i8(i64 immarg, i8* nocapture) #4

declare nonnull align 8 dereferenceable(8) %"class.std::basic_ostream"* @_ZNSolsEi(%"class.std::basic_ostream"* nonnull align 8 dereferenceable(8), i32) local_unnamed_addr #0

; Function Attrs: argmemonly mustprogress nofree nosync nounwind willreturn
declare void @llvm.lifetime.end.p0i8(i64 immarg, i8* nocapture) #4

; Function Attrs: mustprogress norecurse sspstrong uwtable
define dso_local i32 @main() local_unnamed_addr #5 {
  %1 = alloca i32, align 4
  %2 = bitcast i32* %1 to i8*
  call void @llvm.lifetime.start.p0i8(i64 4, i8* nonnull %2) #9
  %3 = call nonnull align 8 dereferenceable(16) %"class.std::basic_istream"* @_ZNSirsERi(%"class.std::basic_istream"* nonnull align 8 dereferenceable(16) @_ZSt3cin, i32* nonnull align 4 dereferenceable(4) %1)
  %4 = load i32, i32* %1, align 4, !tbaa !16
  %5 = icmp eq i32 %4, 1
  br i1 %5, label %6, label %31

6:                                                ; preds = %0
  %7 = call nonnull align 8 dereferenceable(8) %"class.std::basic_ostream"* @_ZSt16__ostream_insertIcSt11char_traitsIcEERSt13basic_ostreamIT_T0_ES6_PKS3_l(%"class.std::basic_ostream"* nonnull align 8 dereferenceable(8) @_ZSt4cout, i8* nonnull getelementptr inbounds ([4 x i8], [4 x i8]* @.str.2, i64 0, i64 0), i64 3)
  %8 = load i8*, i8** bitcast (%"class.std::basic_ostream"* @_ZSt4cout to i8**), align 8, !tbaa !5
  %9 = getelementptr i8, i8* %8, i64 -24
  %10 = bitcast i8* %9 to i64*
  %11 = load i64, i64* %10, align 8
  %12 = add nsw i64 %11, 240
  %13 = getelementptr inbounds i8, i8* bitcast (%"class.std::basic_ostream"* @_ZSt4cout to i8*), i64 %12
  %14 = bitcast i8* %13 to %"class.std::ctype"**
  %15 = load %"class.std::ctype"*, %"class.std::ctype"** %14, align 8, !tbaa !8
  %16 = icmp eq %"class.std::ctype"* %15, null
  br i1 %16, label %17, label %18

17:                                               ; preds = %6
  call void @_ZSt16__throw_bad_castv() #8
  unreachable

18:                                               ; preds = %6
  %19 = getelementptr inbounds %"class.std::ctype", %"class.std::ctype"* %15, i64 0, i32 8
  %20 = load i8, i8* %19, align 8, !tbaa !13
  %21 = icmp eq i8 %20, 0
  br i1 %21, label %25, label %22

22:                                               ; preds = %18
  %23 = getelementptr inbounds %"class.std::ctype", %"class.std::ctype"* %15, i64 0, i32 9, i64 10
  %24 = load i8, i8* %23, align 1, !tbaa !15
  br label %60

25:                                               ; preds = %18
  call void @_ZNKSt5ctypeIcE13_M_widen_initEv(%"class.std::ctype"* nonnull align 8 dereferenceable(570) %15)
  %26 = bitcast %"class.std::ctype"* %15 to i8 (%"class.std::ctype"*, i8)***
  %27 = load i8 (%"class.std::ctype"*, i8)**, i8 (%"class.std::ctype"*, i8)*** %26, align 8, !tbaa !5
  %28 = getelementptr inbounds i8 (%"class.std::ctype"*, i8)*, i8 (%"class.std::ctype"*, i8)** %27, i64 6
  %29 = load i8 (%"class.std::ctype"*, i8)*, i8 (%"class.std::ctype"*, i8)** %28, align 8
  %30 = call signext i8 %29(%"class.std::ctype"* nonnull align 8 dereferenceable(570) %15, i8 signext 10)
  br label %60

31:                                               ; preds = %0, %31
  %32 = phi i32 [ %33, %31 ], [ %4, %0 ]
  %33 = call i32 @_Z6jiaogui(i32 %32)
  %34 = icmp eq i32 %33, 1
  br i1 %34, label %35, label %31, !llvm.loop !18

35:                                               ; preds = %31
  %36 = call nonnull align 8 dereferenceable(8) %"class.std::basic_ostream"* @_ZSt16__ostream_insertIcSt11char_traitsIcEERSt13basic_ostreamIT_T0_ES6_PKS3_l(%"class.std::basic_ostream"* nonnull align 8 dereferenceable(8) @_ZSt4cout, i8* nonnull getelementptr inbounds ([4 x i8], [4 x i8]* @.str.2, i64 0, i64 0), i64 3)
  %37 = load i8*, i8** bitcast (%"class.std::basic_ostream"* @_ZSt4cout to i8**), align 8, !tbaa !5
  %38 = getelementptr i8, i8* %37, i64 -24
  %39 = bitcast i8* %38 to i64*
  %40 = load i64, i64* %39, align 8
  %41 = add nsw i64 %40, 240
  %42 = getelementptr inbounds i8, i8* bitcast (%"class.std::basic_ostream"* @_ZSt4cout to i8*), i64 %41
  %43 = bitcast i8* %42 to %"class.std::ctype"**
  %44 = load %"class.std::ctype"*, %"class.std::ctype"** %43, align 8, !tbaa !8
  %45 = icmp eq %"class.std::ctype"* %44, null
  br i1 %45, label %46, label %47

46:                                               ; preds = %35
  call void @_ZSt16__throw_bad_castv() #8
  unreachable

47:                                               ; preds = %35
  %48 = getelementptr inbounds %"class.std::ctype", %"class.std::ctype"* %44, i64 0, i32 8
  %49 = load i8, i8* %48, align 8, !tbaa !13
  %50 = icmp eq i8 %49, 0
  br i1 %50, label %54, label %51

51:                                               ; preds = %47
  %52 = getelementptr inbounds %"class.std::ctype", %"class.std::ctype"* %44, i64 0, i32 9, i64 10
  %53 = load i8, i8* %52, align 1, !tbaa !15
  br label %60

54:                                               ; preds = %47
  call void @_ZNKSt5ctypeIcE13_M_widen_initEv(%"class.std::ctype"* nonnull align 8 dereferenceable(570) %44)
  %55 = bitcast %"class.std::ctype"* %44 to i8 (%"class.std::ctype"*, i8)***
  %56 = load i8 (%"class.std::ctype"*, i8)**, i8 (%"class.std::ctype"*, i8)*** %55, align 8, !tbaa !5
  %57 = getelementptr inbounds i8 (%"class.std::ctype"*, i8)*, i8 (%"class.std::ctype"*, i8)** %56, i64 6
  %58 = load i8 (%"class.std::ctype"*, i8)*, i8 (%"class.std::ctype"*, i8)** %57, align 8
  %59 = call signext i8 %58(%"class.std::ctype"* nonnull align 8 dereferenceable(570) %44, i8 signext 10)
  br label %60

60:                                               ; preds = %54, %51, %25, %22
  %61 = phi i8 [ %24, %22 ], [ %30, %25 ], [ %53, %51 ], [ %59, %54 ]
  %62 = call nonnull align 8 dereferenceable(8) %"class.std::basic_ostream"* @_ZNSo3putEc(%"class.std::basic_ostream"* nonnull align 8 dereferenceable(8) @_ZSt4cout, i8 signext %61)
  %63 = call nonnull align 8 dereferenceable(8) %"class.std::basic_ostream"* @_ZNSo5flushEv(%"class.std::basic_ostream"* nonnull align 8 dereferenceable(8) %62)
  call void @llvm.lifetime.end.p0i8(i64 4, i8* nonnull %2) #9
  ret i32 0
}

declare nonnull align 8 dereferenceable(16) %"class.std::basic_istream"* @_ZNSirsERi(%"class.std::basic_istream"* nonnull align 8 dereferenceable(16), i32* nonnull align 4 dereferenceable(4)) local_unnamed_addr #0

declare nonnull align 8 dereferenceable(8) %"class.std::basic_ostream"* @_ZSt16__ostream_insertIcSt11char_traitsIcEERSt13basic_ostreamIT_T0_ES6_PKS3_l(%"class.std::basic_ostream"* nonnull align 8 dereferenceable(8), i8*, i64) local_unnamed_addr #0

declare nonnull align 8 dereferenceable(8) %"class.std::basic_ostream"* @_ZNSo3putEc(%"class.std::basic_ostream"* nonnull align 8 dereferenceable(8), i8 signext) local_unnamed_addr #0

declare nonnull align 8 dereferenceable(8) %"class.std::basic_ostream"* @_ZNSo5flushEv(%"class.std::basic_ostream"* nonnull align 8 dereferenceable(8)) local_unnamed_addr #0

; Function Attrs: noreturn
declare void @_ZSt16__throw_bad_castv() local_unnamed_addr #6

declare void @_ZNKSt5ctypeIcE13_M_widen_initEv(%"class.std::ctype"* nonnull align 8 dereferenceable(570)) local_unnamed_addr #0

; Function Attrs: sspstrong uwtable
define internal void @_GLOBAL__sub_I_1145.cpp() #7 section ".text.startup" {
  tail call void @_ZNSt8ios_base4InitC1Ev(%"class.std::ios_base::Init"* nonnull align 1 dereferenceable(1) @_ZStL8__ioinit)
  %1 = tail call i32 @__cxa_atexit(void (i8*)* bitcast (void (%"class.std::ios_base::Init"*)* @_ZNSt8ios_base4InitD1Ev to void (i8*)*), i8* getelementptr inbounds (%"class.std::ios_base::Init", %"class.std::ios_base::Init"* @_ZStL8__ioinit, i64 0, i32 0), i8* nonnull @__dso_handle) #9
  ret void
}


!llvm.module.flags = !{!0, !1, !2, !3}
!llvm.ident = !{!4}

!0 = !{i32 1, !"wchar_size", i32 4}
!1 = !{i32 7, !"PIC Level", i32 2}
!2 = !{i32 7, !"PIE Level", i32 2}
!3 = !{i32 7, !"uwtable", i32 1}
!4 = !{!"clang version 13.0.0"}
!5 = !{!6, !6, i64 0}
!6 = !{!"vtable pointer", !7, i64 0}
!7 = !{!"Simple C++ TBAA"}
!8 = !{!9, !10, i64 240}
!9 = !{!"_ZTSSt9basic_iosIcSt11char_traitsIcEE", !10, i64 216, !11, i64 224, !12, i64 225, !10, i64 232, !10, i64 240, !10, i64 248, !10, i64 256}
!10 = !{!"any pointer", !11, i64 0}
!11 = !{!"omnipotent char", !7, i64 0}
!12 = !{!"bool", !11, i64 0}
!13 = !{!14, !11, i64 56}
!14 = !{!"_ZTSSt5ctypeIcE", !10, i64 16, !12, i64 24, !10, i64 32, !10, i64 40, !10, i64 48, !11, i64 56, !11, i64 57, !11, i64 313, !11, i64 569}
!15 = !{!11, !11, i64 0}
!16 = !{!17, !17, i64 0}
!17 = !{!"int", !11, i64 0}
!18 = distinct !{!18, !19}
!19 = !{!"llvm.loop.mustprogress"}
